; Function Attrs: nounwind uwtable
define ptr @Nwk_MappingIf(ptr noundef %0, ptr noundef %1, ptr noundef initializes((288, 296)) %2) local_unnamed_addr #2 {
  %4 = getelementptr i8, ptr %0, i64 136
  %.val26 = load i32, ptr %4, align 8
  %5 = sext i32 %.val26 to i64
  %6 = shl nsw i64 %5, 2
  %7 = tail call noalias ptr @malloc(i64 noundef %6) #16
  %8 = getelementptr inbounds nuw i8, ptr %2, i64 288
  store ptr %7, ptr %8, align 8
  %.val27 = load i32, ptr %4, align 8
  %9 = sext i32 %.val27 to i64
  %10 = shl nsw i64 %9, 2
  tail call void @llvm.memset.p0.i64(ptr align 4 %7, i8 0, i64 %10, i1 false)
  %11 = getelementptr i8, ptr %0, i64 32
  %.val = load ptr, ptr %11, align 8
  %12 = getelementptr i8, ptr %.val, i64 4
  %.val.val = load i32, ptr %12, align 4
  %13 = tail call noalias dereferenceable_or_null(16) ptr @malloc(i64 noundef 16) #16
  %14 = add i32 %.val.val, -1
  %or.cond.i.i = icmp ult i32 %14, 7
  %spec.store.select.i.i = select i1 %or.cond.i.i, i32 8, i32 %.val.val
  store i32 %spec.store.select.i.i, ptr %13, align 8
  %.not.i.i = icmp eq i32 %spec.store.select.i.i, 0
  br i1 %.not.i.i, label %Vec_PtrStart.exit, label %15

15:                                               ; preds = %3
  %16 = sext i32 %spec.store.select.i.i to i64
  %17 = shl nsw i64 %16, 3
  %18 = tail call noalias ptr @malloc(i64 noundef %17) #16
  br label %Vec_PtrStart.exit

Vec_PtrStart.exit:                                ; preds = %3, %15
  %19 = phi ptr [ %18, %15 ], [ null, %3 ]
  %20 = getelementptr inbounds nuw i8, ptr %13, i64 4
  %21 = getelementptr inbounds nuw i8, ptr %13, i64 8
  store ptr %19, ptr %21, align 8
  store i32 %.val.val, ptr %20, align 4
  %22 = sext i32 %.val.val to i64
  %23 = shl nsw i64 %22, 3
  tail call void @llvm.memset.p0.i64(ptr align 8 %19, i8 0, i64 %23, i1 false)
  %24 = tail call ptr @Nwk_ManToIf(ptr noundef nonnull %0, ptr noundef nonnull %2, ptr noundef nonnull %13)
  %25 = icmp eq ptr %24, null
  br i1 %25, label %44, label %26

26:                                               ; preds = %Vec_PtrStart.exit
  %27 = tail call ptr @Tim_ManDup(ptr noundef %1, i32 noundef 0) #15
  %28 = getelementptr inbounds nuw i8, ptr %24, i64 2280
  store ptr %27, ptr %28, align 8
  %29 = getelementptr inbounds nuw i8, ptr %24, i64 8
  %30 = load ptr, ptr %29, align 8
  %31 = getelementptr inbounds nuw i8, ptr %30, i64 84
  store i32 0, ptr %31, align 4
  %32 = tail call i32 @If_ManPerformMapping(ptr noundef nonnull %24) #15
  %.not = icmp eq i32 %32, 0
  br i1 %.not, label %33, label %34

33:                                               ; preds = %26
  tail call void @If_ManStop(ptr noundef nonnull %24) #15
  br label %44

34:                                               ; preds = %26
  %35 = tail call ptr @Nwk_ManFromIf(ptr noundef nonnull %24, ptr noundef nonnull %0, ptr noundef nonnull %13)
  %36 = getelementptr inbounds nuw i8, ptr %2, i64 108
  %37 = load i32, ptr %36, align 4
  %.not25 = icmp eq i32 %37, 0
  br i1 %.not25, label %42, label %38

38:                                               ; preds = %34
  %39 = load i32, ptr %2, align 8
  %40 = icmp slt i32 %39, 9
  br i1 %40, label %41, label %42

41:                                               ; preds = %38
  tail call void @Nwk_ManBidecResyn(ptr noundef %35, i32 noundef 0) #15
  br label %42

42:                                               ; preds = %41, %38, %34
  tail call void @If_ManStop(ptr noundef nonnull %24) #15
  %.not.i = icmp eq ptr %19, null
  br i1 %.not.i, label %Vec_PtrFree.exit, label %43

43:                                               ; preds = %42
  tail call void @free(ptr noundef nonnull %19) #15
  br label %Vec_PtrFree.exit

Vec_PtrFree.exit:                                 ; preds = %42, %43
  tail call void @free(ptr noundef nonnull %13) #15
  br label %44

44:                                               ; preds = %Vec_PtrStart.exit, %Vec_PtrFree.exit, %33
  %.0 = phi ptr [ %35, %Vec_PtrFree.exit ], [ null, %33 ], [ null, %Vec_PtrStart.exit ]
  ret ptr %.0
}